target datalayout = "e-m:e-p270:32:32-p271:32:32-p272:64:64-i64:64-i128:128-f80:128-n8:16:32:64-S128"
target triple = "x86_64-pc-linux-gnu"

%"class.pxrInternal_v0_24__pxrReserved__::GfMatrix4d" = type { %"class.pxrInternal_v0_24__pxrReserved__::GfMatrixData" }
%"class.pxrInternal_v0_24__pxrReserved__::GfMatrixData" = type { [16 x double] }
%"class.pxrInternal_v0_24__pxrReserved__::GfVec3d" = type { [3 x double] }
%"class.pxrInternal_v0_24__pxrReserved__::GfQuatd" = type { %"class.pxrInternal_v0_24__pxrReserved__::GfVec3d", double }

; Function Attrs: mustprogress nounwind uwtable
define linkonce_odr noundef ptr @_ZN32pxrInternal_v0_24__pxrReserved__12GfMatrixDataIdLi4ELi4EEixEi(ptr noundef nonnull align 8 dereferenceable(128) %0, i32 noundef %1) #2 comdat align 2 {
  %3 = alloca ptr, align 8
  %4 = alloca i32, align 4
  store ptr %0, ptr %3, align 8
  store i32 %1, ptr %4, align 4
  %5 = load ptr, ptr %3, align 8
  %6 = getelementptr inbounds nuw %"class.pxrInternal_v0_24__pxrReserved__::GfMatrixData", ptr %5, i32 0, i32 0
  %7 = getelementptr inbounds [16 x double], ptr %6, i64 0, i64 0
  %8 = load i32, ptr %4, align 4
  %9 = mul nsw i32 %8, 4
  %10 = sext i32 %9 to i64
  %11 = getelementptr inbounds double, ptr %7, i64 %10
  ret ptr %11
}

; Function Attrs: mustprogress nounwind uwtable
define linkonce_odr noundef nonnull align 8 dereferenceable(8) ptr @_ZNK32pxrInternal_v0_24__pxrReserved__7GfVec3dixEm(ptr noundef nonnull align 8 dereferenceable(24) %0, i64 noundef %1) #2 comdat align 2 {
  %3 = alloca ptr, align 8
  %4 = alloca i64, align 8
  store ptr %0, ptr %3, align 8
  store i64 %1, ptr %4, align 8
  %5 = load ptr, ptr %3, align 8
  %6 = getelementptr inbounds nuw %"class.pxrInternal_v0_24__pxrReserved__::GfVec3d", ptr %5, i32 0, i32 0
  %7 = load i64, ptr %4, align 8
  %8 = getelementptr inbounds [3 x double], ptr %6, i64 0, i64 %7
  ret ptr %8
}

; Function Attrs: mustprogress uwtable
define void @_ZN32pxrInternal_v0_24__pxrReserved__10GfMatrix4d18_SetRotateFromQuatEdRKNS_7GfVec3dE(ptr noundef nonnull align 8 dereferenceable(128) %0, double noundef %1, ptr noundef nonnull align 8 dereferenceable(24) %2) #0 align 2 {
  %4 = alloca ptr, align 8
  %5 = alloca double, align 8
  %6 = alloca ptr, align 8
  store ptr %0, ptr %4, align 8
  store double %1, ptr %5, align 8
  store ptr %2, ptr %6, align 8
  %7 = load ptr, ptr %4, align 8
  %8 = load ptr, ptr %6, align 8
  %9 = call noundef nonnull align 8 dereferenceable(8) ptr @_ZNK32pxrInternal_v0_24__pxrReserved__7GfVec3dixEm(ptr noundef nonnull align 8 dereferenceable(24) %8, i64 noundef 1)
  %10 = load double, ptr %9, align 8
  %11 = load ptr, ptr %6, align 8
  %12 = call noundef nonnull align 8 dereferenceable(8) ptr @_ZNK32pxrInternal_v0_24__pxrReserved__7GfVec3dixEm(ptr noundef nonnull align 8 dereferenceable(24) %11, i64 noundef 1)
  %13 = load double, ptr %12, align 8
  %14 = load ptr, ptr %6, align 8
  %15 = call noundef nonnull align 8 dereferenceable(8) ptr @_ZNK32pxrInternal_v0_24__pxrReserved__7GfVec3dixEm(ptr noundef nonnull align 8 dereferenceable(24) %14, i64 noundef 2)
  %16 = load double, ptr %15, align 8
  %17 = load ptr, ptr %6, align 8
  %18 = call noundef nonnull align 8 dereferenceable(8) ptr @_ZNK32pxrInternal_v0_24__pxrReserved__7GfVec3dixEm(ptr noundef nonnull align 8 dereferenceable(24) %17, i64 noundef 2)
  %19 = load double, ptr %18, align 8
  %20 = fmul double %16, %19
  %21 = call double @llvm.fmuladd.f64(double %10, double %13, double %20)
  %22 = call double @llvm.fmuladd.f64(double -2.000000e+00, double %21, double 1.000000e+00)
  %23 = getelementptr inbounds nuw %"class.pxrInternal_v0_24__pxrReserved__::GfMatrix4d", ptr %7, i32 0, i32 0
  %24 = call noundef ptr @_ZN32pxrInternal_v0_24__pxrReserved__12GfMatrixDataIdLi4ELi4EEixEi(ptr noundef nonnull align 8 dereferenceable(128) %23, i32 noundef 0)
  %25 = getelementptr inbounds double, ptr %24, i64 0
  store double %22, ptr %25, align 8
  %26 = load ptr, ptr %6, align 8
  %27 = call noundef nonnull align 8 dereferenceable(8) ptr @_ZNK32pxrInternal_v0_24__pxrReserved__7GfVec3dixEm(ptr noundef nonnull align 8 dereferenceable(24) %26, i64 noundef 0)
  %28 = load double, ptr %27, align 8
  %29 = load ptr, ptr %6, align 8
  %30 = call noundef nonnull align 8 dereferenceable(8) ptr @_ZNK32pxrInternal_v0_24__pxrReserved__7GfVec3dixEm(ptr noundef nonnull align 8 dereferenceable(24) %29, i64 noundef 1)
  %31 = load double, ptr %30, align 8
  %32 = load ptr, ptr %6, align 8
  %33 = call noundef nonnull align 8 dereferenceable(8) ptr @_ZNK32pxrInternal_v0_24__pxrReserved__7GfVec3dixEm(ptr noundef nonnull align 8 dereferenceable(24) %32, i64 noundef 2)
  %34 = load double, ptr %33, align 8
  %35 = load double, ptr %5, align 8
  %36 = fmul double %34, %35
  %37 = call double @llvm.fmuladd.f64(double %28, double %31, double %36)
  %38 = fmul double 2.000000e+00, %37
  %39 = getelementptr inbounds nuw %"class.pxrInternal_v0_24__pxrReserved__::GfMatrix4d", ptr %7, i32 0, i32 0
  %40 = call noundef ptr @_ZN32pxrInternal_v0_24__pxrReserved__12GfMatrixDataIdLi4ELi4EEixEi(ptr noundef nonnull align 8 dereferenceable(128) %39, i32 noundef 0)
  %41 = getelementptr inbounds double, ptr %40, i64 1
  store double %38, ptr %41, align 8
  %42 = load ptr, ptr %6, align 8
  %43 = call noundef nonnull align 8 dereferenceable(8) ptr @_ZNK32pxrInternal_v0_24__pxrReserved__7GfVec3dixEm(ptr noundef nonnull align 8 dereferenceable(24) %42, i64 noundef 2)
  %44 = load double, ptr %43, align 8
  %45 = load ptr, ptr %6, align 8
  %46 = call noundef nonnull align 8 dereferenceable(8) ptr @_ZNK32pxrInternal_v0_24__pxrReserved__7GfVec3dixEm(ptr noundef nonnull align 8 dereferenceable(24) %45, i64 noundef 0)
  %47 = load double, ptr %46, align 8
  %48 = load ptr, ptr %6, align 8
  %49 = call noundef nonnull align 8 dereferenceable(8) ptr @_ZNK32pxrInternal_v0_24__pxrReserved__7GfVec3dixEm(ptr noundef nonnull align 8 dereferenceable(24) %48, i64 noundef 1)
  %50 = load double, ptr %49, align 8
  %51 = load double, ptr %5, align 8
  %52 = fmul double %50, %51
  %53 = fneg double %52
  %54 = call double @llvm.fmuladd.f64(double %44, double %47, double %53)
  %55 = fmul double 2.000000e+00, %54
  %56 = getelementptr inbounds nuw %"class.pxrInternal_v0_24__pxrReserved__::GfMatrix4d", ptr %7, i32 0, i32 0
  %57 = call noundef ptr @_ZN32pxrInternal_v0_24__pxrReserved__12GfMatrixDataIdLi4ELi4EEixEi(ptr noundef nonnull align 8 dereferenceable(128) %56, i32 noundef 0)
  %58 = getelementptr inbounds double, ptr %57, i64 2
  store double %55, ptr %58, align 8
  %59 = load ptr, ptr %6, align 8
  %60 = call noundef nonnull align 8 dereferenceable(8) ptr @_ZNK32pxrInternal_v0_24__pxrReserved__7GfVec3dixEm(ptr noundef nonnull align 8 dereferenceable(24) %59, i64 noundef 0)
  %61 = load double, ptr %60, align 8
  %62 = load ptr, ptr %6, align 8
  %63 = call noundef nonnull align 8 dereferenceable(8) ptr @_ZNK32pxrInternal_v0_24__pxrReserved__7GfVec3dixEm(ptr noundef nonnull align 8 dereferenceable(24) %62, i64 noundef 1)
  %64 = load double, ptr %63, align 8
  %65 = load ptr, ptr %6, align 8
  %66 = call noundef nonnull align 8 dereferenceable(8) ptr @_ZNK32pxrInternal_v0_24__pxrReserved__7GfVec3dixEm(ptr noundef nonnull align 8 dereferenceable(24) %65, i64 noundef 2)
  %67 = load double, ptr %66, align 8
  %68 = load double, ptr %5, align 8
  %69 = fmul double %67, %68
  %70 = fneg double %69
  %71 = call double @llvm.fmuladd.f64(double %61, double %64, double %70)
  %72 = fmul double 2.000000e+00, %71
  %73 = getelementptr inbounds nuw %"class.pxrInternal_v0_24__pxrReserved__::GfMatrix4d", ptr %7, i32 0, i32 0
  %74 = call noundef ptr @_ZN32pxrInternal_v0_24__pxrReserved__12GfMatrixDataIdLi4ELi4EEixEi(ptr noundef nonnull align 8 dereferenceable(128) %73, i32 noundef 1)
  %75 = getelementptr inbounds double, ptr %74, i64 0
  store double %72, ptr %75, align 8
  %76 = load ptr, ptr %6, align 8
  %77 = call noundef nonnull align 8 dereferenceable(8) ptr @_ZNK32pxrInternal_v0_24__pxrReserved__7GfVec3dixEm(ptr noundef nonnull align 8 dereferenceable(24) %76, i64 noundef 2)
  %78 = load double, ptr %77, align 8
  %79 = load ptr, ptr %6, align 8
  %80 = call noundef nonnull align 8 dereferenceable(8) ptr @_ZNK32pxrInternal_v0_24__pxrReserved__7GfVec3dixEm(ptr noundef nonnull align 8 dereferenceable(24) %79, i64 noundef 2)
  %81 = load double, ptr %80, align 8
  %82 = load ptr, ptr %6, align 8
  %83 = call noundef nonnull align 8 dereferenceable(8) ptr @_ZNK32pxrInternal_v0_24__pxrReserved__7GfVec3dixEm(ptr noundef nonnull align 8 dereferenceable(24) %82, i64 noundef 0)
  %84 = load double, ptr %83, align 8
  %85 = load ptr, ptr %6, align 8
  %86 = call noundef nonnull align 8 dereferenceable(8) ptr @_ZNK32pxrInternal_v0_24__pxrReserved__7GfVec3dixEm(ptr noundef nonnull align 8 dereferenceable(24) %85, i64 noundef 0)
  %87 = load double, ptr %86, align 8
  %88 = fmul double %84, %87
  %89 = call double @llvm.fmuladd.f64(double %78, double %81, double %88)
  %90 = call double @llvm.fmuladd.f64(double -2.000000e+00, double %89, double 1.000000e+00)
  %91 = getelementptr inbounds nuw %"class.pxrInternal_v0_24__pxrReserved__::GfMatrix4d", ptr %7, i32 0, i32 0
  %92 = call noundef ptr @_ZN32pxrInternal_v0_24__pxrReserved__12GfMatrixDataIdLi4ELi4EEixEi(ptr noundef nonnull align 8 dereferenceable(128) %91, i32 noundef 1)
  %93 = getelementptr inbounds double, ptr %92, i64 1
  store double %90, ptr %93, align 8
  %94 = load ptr, ptr %6, align 8
  %95 = call noundef nonnull align 8 dereferenceable(8) ptr @_ZNK32pxrInternal_v0_24__pxrReserved__7GfVec3dixEm(ptr noundef nonnull align 8 dereferenceable(24) %94, i64 noundef 1)
  %96 = load double, ptr %95, align 8
  %97 = load ptr, ptr %6, align 8
  %98 = call noundef nonnull align 8 dereferenceable(8) ptr @_ZNK32pxrInternal_v0_24__pxrReserved__7GfVec3dixEm(ptr noundef nonnull align 8 dereferenceable(24) %97, i64 noundef 2)
  %99 = load double, ptr %98, align 8
  %100 = load ptr, ptr %6, align 8
  %101 = call noundef nonnull align 8 dereferenceable(8) ptr @_ZNK32pxrInternal_v0_24__pxrReserved__7GfVec3dixEm(ptr noundef nonnull align 8 dereferenceable(24) %100, i64 noundef 0)
  %102 = load double, ptr %101, align 8
  %103 = load double, ptr %5, align 8
  %104 = fmul double %102, %103
  %105 = call double @llvm.fmuladd.f64(double %96, double %99, double %104)
  %106 = fmul double 2.000000e+00, %105
  %107 = getelementptr inbounds nuw %"class.pxrInternal_v0_24__pxrReserved__::GfMatrix4d", ptr %7, i32 0, i32 0
  %108 = call noundef ptr @_ZN32pxrInternal_v0_24__pxrReserved__12GfMatrixDataIdLi4ELi4EEixEi(ptr noundef nonnull align 8 dereferenceable(128) %107, i32 noundef 1)
  %109 = getelementptr inbounds double, ptr %108, i64 2
  store double %106, ptr %109, align 8
  %110 = load ptr, ptr %6, align 8
  %111 = call noundef nonnull align 8 dereferenceable(8) ptr @_ZNK32pxrInternal_v0_24__pxrReserved__7GfVec3dixEm(ptr noundef nonnull align 8 dereferenceable(24) %110, i64 noundef 2)
  %112 = load double, ptr %111, align 8
  %113 = load ptr, ptr %6, align 8
  %114 = call noundef nonnull align 8 dereferenceable(8) ptr @_ZNK32pxrInternal_v0_24__pxrReserved__7GfVec3dixEm(ptr noundef nonnull align 8 dereferenceable(24) %113, i64 noundef 0)
  %115 = load double, ptr %114, align 8
  %116 = load ptr, ptr %6, align 8
  %117 = call noundef nonnull align 8 dereferenceable(8) ptr @_ZNK32pxrInternal_v0_24__pxrReserved__7GfVec3dixEm(ptr noundef nonnull align 8 dereferenceable(24) %116, i64 noundef 1)
  %118 = load double, ptr %117, align 8
  %119 = load double, ptr %5, align 8
  %120 = fmul double %118, %119
  %121 = call double @llvm.fmuladd.f64(double %112, double %115, double %120)
  %122 = fmul double 2.000000e+00, %121
  %123 = getelementptr inbounds nuw %"class.pxrInternal_v0_24__pxrReserved__::GfMatrix4d", ptr %7, i32 0, i32 0
  %124 = call noundef ptr @_ZN32pxrInternal_v0_24__pxrReserved__12GfMatrixDataIdLi4ELi4EEixEi(ptr noundef nonnull align 8 dereferenceable(128) %123, i32 noundef 2)
  %125 = getelementptr inbounds double, ptr %124, i64 0
  store double %122, ptr %125, align 8
  %126 = load ptr, ptr %6, align 8
  %127 = call noundef nonnull align 8 dereferenceable(8) ptr @_ZNK32pxrInternal_v0_24__pxrReserved__7GfVec3dixEm(ptr noundef nonnull align 8 dereferenceable(24) %126, i64 noundef 1)
  %128 = load double, ptr %127, align 8
  %129 = load ptr, ptr %6, align 8
  %130 = call noundef nonnull align 8 dereferenceable(8) ptr @_ZNK32pxrInternal_v0_24__pxrReserved__7GfVec3dixEm(ptr noundef nonnull align 8 dereferenceable(24) %129, i64 noundef 2)
  %131 = load double, ptr %130, align 8
  %132 = load ptr, ptr %6, align 8
  %133 = call noundef nonnull align 8 dereferenceable(8) ptr @_ZNK32pxrInternal_v0_24__pxrReserved__7GfVec3dixEm(ptr noundef nonnull align 8 dereferenceable(24) %132, i64 noundef 0)
  %134 = load double, ptr %133, align 8
  %135 = load double, ptr %5, align 8
  %136 = fmul double %134, %135
  %137 = fneg double %136
  %138 = call double @llvm.fmuladd.f64(double %128, double %131, double %137)
  %139 = fmul double 2.000000e+00, %138
  %140 = getelementptr inbounds nuw %"class.pxrInternal_v0_24__pxrReserved__::GfMatrix4d", ptr %7, i32 0, i32 0
  %141 = call noundef ptr @_ZN32pxrInternal_v0_24__pxrReserved__12GfMatrixDataIdLi4ELi4EEixEi(ptr noundef nonnull align 8 dereferenceable(128) %140, i32 noundef 2)
  %142 = getelementptr inbounds double, ptr %141, i64 1
  store double %139, ptr %142, align 8
  %143 = load ptr, ptr %6, align 8
  %144 = call noundef nonnull align 8 dereferenceable(8) ptr @_ZNK32pxrInternal_v0_24__pxrReserved__7GfVec3dixEm(ptr noundef nonnull align 8 dereferenceable(24) %143, i64 noundef 1)
  %145 = load double, ptr %144, align 8
  %146 = load ptr, ptr %6, align 8
  %147 = call noundef nonnull align 8 dereferenceable(8) ptr @_ZNK32pxrInternal_v0_24__pxrReserved__7GfVec3dixEm(ptr noundef nonnull align 8 dereferenceable(24) %146, i64 noundef 1)
  %148 = load double, ptr %147, align 8
  %149 = load ptr, ptr %6, align 8
  %150 = call noundef nonnull align 8 dereferenceable(8) ptr @_ZNK32pxrInternal_v0_24__pxrReserved__7GfVec3dixEm(ptr noundef nonnull align 8 dereferenceable(24) %149, i64 noundef 0)
  %151 = load double, ptr %150, align 8
  %152 = load ptr, ptr %6, align 8
  %153 = call noundef nonnull align 8 dereferenceable(8) ptr @_ZNK32pxrInternal_v0_24__pxrReserved__7GfVec3dixEm(ptr noundef nonnull align 8 dereferenceable(24) %152, i64 noundef 0)
  %154 = load double, ptr %153, align 8
  %155 = fmul double %151, %154
  %156 = call double @llvm.fmuladd.f64(double %145, double %148, double %155)
  %157 = call double @llvm.fmuladd.f64(double -2.000000e+00, double %156, double 1.000000e+00)
  %158 = getelementptr inbounds nuw %"class.pxrInternal_v0_24__pxrReserved__::GfMatrix4d", ptr %7, i32 0, i32 0
  %159 = call noundef ptr @_ZN32pxrInternal_v0_24__pxrReserved__12GfMatrixDataIdLi4ELi4EEixEi(ptr noundef nonnull align 8 dereferenceable(128) %158, i32 noundef 2)
  %160 = getelementptr inbounds double, ptr %159, i64 2
  store double %157, ptr %160, align 8
  ret void
}

; Function Attrs: mustprogress nounwind uwtable
define linkonce_odr noundef nonnull align 8 dereferenceable(24) ptr @_ZNK32pxrInternal_v0_24__pxrReserved__7GfQuatd12GetImaginaryEv(ptr noundef nonnull align 8 dereferenceable(32) %0) #2 comdat align 2 {
  %2 = alloca ptr, align 8
  store ptr %0, ptr %2, align 8
  %3 = load ptr, ptr %2, align 8
  %4 = getelementptr inbounds nuw %"class.pxrInternal_v0_24__pxrReserved__::GfQuatd", ptr %3, i32 0, i32 0
  ret ptr %4
}

; Function Attrs: mustprogress nounwind uwtable
define linkonce_odr noundef double @_ZNK32pxrInternal_v0_24__pxrReserved__7GfQuatd7GetRealEv(ptr noundef nonnull align 8 dereferenceable(32) %0) #2 comdat align 2 {
  %2 = alloca ptr, align 8
  store ptr %0, ptr %2, align 8
  %3 = load ptr, ptr %2, align 8
  %4 = getelementptr inbounds nuw %"class.pxrInternal_v0_24__pxrReserved__::GfQuatd", ptr %3, i32 0, i32 1
  %5 = load double, ptr %4, align 8
  ret double %5
}

; Function Attrs: mustprogress uwtable
define noundef nonnull align 8 dereferenceable(128) ptr @_ZN32pxrInternal_v0_24__pxrReserved__10GfMatrix4d13SetRotateOnlyERKNS_7GfQuatdE(ptr noundef nonnull align 8 dereferenceable(128) %0, ptr noundef nonnull align 8 dereferenceable(32) %1) #0 align 2 {
  %3 = alloca ptr, align 8
  %4 = alloca ptr, align 8
  store ptr %0, ptr %3, align 8
  store ptr %1, ptr %4, align 8
  %5 = load ptr, ptr %3, align 8
  %6 = load ptr, ptr %4, align 8
  %7 = call noundef double @_ZNK32pxrInternal_v0_24__pxrReserved__7GfQuatd7GetRealEv(ptr noundef nonnull align 8 dereferenceable(32) %6)
  %8 = load ptr, ptr %4, align 8
  %9 = call noundef nonnull align 8 dereferenceable(24) ptr @_ZNK32pxrInternal_v0_24__pxrReserved__7GfQuatd12GetImaginaryEv(ptr noundef nonnull align 8 dereferenceable(32) %8)
  call void @_ZN32pxrInternal_v0_24__pxrReserved__10GfMatrix4d18_SetRotateFromQuatEdRKNS_7GfVec3dE(ptr noundef nonnull align 8 dereferenceable(128) %5, double noundef %7, ptr noundef nonnull align 8 dereferenceable(24) %9)
  ret ptr %5
}