; Function Attrs: mustprogress nofree norecurse nosync nounwind willreturn memory(argmem: readwrite) uwtable
define noundef nonnull align 8 dereferenceable(128) ptr @_ZN32pxrInternal_v0_24__pxrReserved__10GfMatrix4d13SetRotateOnlyERKNS_7GfQuatdE(ptr noundef nonnull returned writeonly align 8 dereferenceable(128) %0, ptr nocapture noundef nonnull readonly align 8 dereferenceable(32) %1) local_unnamed_addr #2 align 2 {
  %3 = getelementptr inbounds nuw i8, ptr %1, i64 24
  %4 = load double, ptr %3, align 8
  %5 = getelementptr inbounds i8, ptr %1, i64 8
  %6 = load double, ptr %5, align 8
  %7 = getelementptr inbounds i8, ptr %1, i64 16
  %8 = load double, ptr %7, align 8
  %9 = fmul double %8, %8
  %10 = tail call double @llvm.fmuladd.f64(double %6, double %6, double %9)
  %11 = tail call double @llvm.fmuladd.f64(double %10, double -2.000000e+00, double 1.000000e+00)
  store double %11, ptr %0, align 8
  %12 = load double, ptr %1, align 8
  %13 = load double, ptr %5, align 8
  %14 = load double, ptr %7, align 8
  %15 = fmul double %4, %14
  %16 = tail call double @llvm.fmuladd.f64(double %12, double %13, double %15)
  %17 = fmul double %16, 2.000000e+00
  %18 = getelementptr inbounds i8, ptr %0, i64 8
  store double %17, ptr %18, align 8
  %19 = load double, ptr %7, align 8
  %20 = load double, ptr %1, align 8
  %21 = load double, ptr %5, align 8
  %22 = fneg double %4
  %23 = fmul double %21, %22
  %24 = tail call double @llvm.fmuladd.f64(double %19, double %20, double %23)
  %25 = fmul double %24, 2.000000e+00
  %26 = getelementptr inbounds i8, ptr %0, i64 16
  store double %25, ptr %26, align 8
  %27 = load double, ptr %1, align 8
  %28 = load double, ptr %5, align 8
  %29 = load double, ptr %7, align 8
  %30 = fmul double %29, %22
  %31 = tail call double @llvm.fmuladd.f64(double %27, double %28, double %30)
  %32 = fmul double %31, 2.000000e+00
  %33 = getelementptr inbounds i8, ptr %0, i64 32
  store double %32, ptr %33, align 8
  %34 = load double, ptr %7, align 8
  %35 = load double, ptr %1, align 8
  %36 = fmul double %35, %35
  %37 = tail call double @llvm.fmuladd.f64(double %34, double %34, double %36)
  %38 = tail call double @llvm.fmuladd.f64(double %37, double -2.000000e+00, double 1.000000e+00)
  %39 = getelementptr inbounds i8, ptr %0, i64 40
  store double %38, ptr %39, align 8
  %40 = load double, ptr %5, align 8
  %41 = load double, ptr %7, align 8
  %42 = load double, ptr %1, align 8
  %43 = fmul double %4, %42
  %44 = tail call double @llvm.fmuladd.f64(double %40, double %41, double %43)
  %45 = fmul double %44, 2.000000e+00
  %46 = getelementptr inbounds i8, ptr %0, i64 48
  store double %45, ptr %46, align 8
  %47 = load double, ptr %7, align 8
  %48 = load double, ptr %1, align 8
  %49 = load double, ptr %5, align 8
  %50 = fmul double %4, %49
  %51 = tail call double @llvm.fmuladd.f64(double %47, double %48, double %50)
  %52 = fmul double %51, 2.000000e+00
  %53 = getelementptr inbounds i8, ptr %0, i64 64
  store double %52, ptr %53, align 8
  %54 = load double, ptr %5, align 8
  %55 = load double, ptr %7, align 8
  %56 = load double, ptr %1, align 8
  %57 = fmul double %56, %22
  %58 = tail call double @llvm.fmuladd.f64(double %54, double %55, double %57)
  %59 = fmul double %58, 2.000000e+00
  %60 = getelementptr inbounds i8, ptr %0, i64 72
  store double %59, ptr %60, align 8
  %61 = load double, ptr %5, align 8
  %62 = load double, ptr %1, align 8
  %63 = fmul double %62, %62
  %64 = tail call double @llvm.fmuladd.f64(double %61, double %61, double %63)
  %65 = tail call double @llvm.fmuladd.f64(double %64, double -2.000000e+00, double 1.000000e+00)
  %66 = getelementptr inbounds i8, ptr %0, i64 80
  store double %65, ptr %66, align 8
  ret ptr %0
}